; Function Attrs: null_pointer_is_valid sspstrong uwtable
define hidden i32 @netdfs_dissect_struct_dfs_Info106(ptr noundef %0, i32 noundef %1, ptr noundef %2, ptr noundef %3, ptr noundef %4, ptr noundef %5, i32 noundef %6, i32 %7) local_unnamed_addr #0 {
  %9 = getelementptr inbounds nuw i8, ptr %4, i64 25
  %10 = load i8, ptr %9, align 1, !range !6, !noundef !7
  %11 = trunc nuw i8 %10 to i1
  %12 = and i32 %1, 3
  %.not = icmp eq i32 %12, 0
  %or.cond = or i1 %.not, %11
  %13 = and i32 %1, -4
  %14 = add i32 %13, 4
  %.0 = select i1 %or.cond, i32 %1, i32 %14
  %.not32 = icmp eq ptr %3, null
  br i1 %.not32, label %19, label %15

15:                                               ; preds = %8
  %16 = tail call ptr @proto_tree_add_item(ptr noundef nonnull %3, i32 noundef %6, ptr noundef %0, i32 noundef %.0, i32 noundef -1, i32 noundef 0)
  %17 = load i32, ptr @ett_netdfs_dfs_Info106, align 4
  %18 = tail call ptr @proto_item_add_subtree(ptr noundef %16, i32 noundef %17)
  br label %19

19:                                               ; preds = %15, %8
  %.030 = phi ptr [ %16, %15 ], [ null, %8 ]
  %.029 = phi ptr [ %18, %15 ], [ null, %8 ]
  %20 = load i32, ptr @hf_netdfs_dfs_Info106_state, align 4
  %21 = tail call i32 @netdfs_dissect_bitmap_dfs_StorageState(ptr noundef %0, i32 noundef %.0, ptr noundef %2, ptr noundef %.029, ptr noundef %4, ptr noundef %5, i32 noundef %20, i32 poison)
  %22 = load i32, ptr @hf_netdfs_dfs_Info106_priority, align 4
  %23 = tail call i32 @netdfs_dissect_struct_dfs_Target_Priority(ptr noundef %0, i32 noundef %21, ptr noundef %2, ptr noundef %.029, ptr noundef %4, ptr noundef %5, i32 noundef %22, i32 poison)
  %24 = sub i32 %23, %.0
  tail call void @proto_item_set_len(ptr noundef %.030, i32 noundef %24)
  %25 = getelementptr inbounds nuw i8, ptr %4, i64 64
  %26 = load ptr, ptr %25, align 8
  %27 = getelementptr inbounds nuw i8, ptr %26, i64 96
  %28 = load i32, ptr %27, align 8
  %29 = and i32 %28, 1
  %.not33 = icmp eq i32 %29, 0
  br i1 %.not33, label %37, label %30

30:                                               ; preds = %19
  %31 = load i8, ptr %9, align 1, !range !6, !noundef !7
  %32 = trunc nuw i8 %31 to i1
  %33 = and i32 %23, 3
  %.not34 = icmp eq i32 %33, 0
  %or.cond35 = or i1 %.not34, %32
  br i1 %or.cond35, label %37, label %34

34:                                               ; preds = %30
  %35 = and i32 %23, -4
  %36 = add i32 %35, 4
  br label %37

37:                                               ; preds = %30, %34, %19
  %.1 = phi i32 [ %23, %30 ], [ %36, %34 ], [ %23, %19 ]
  ret i32 %.1
}